target datalayout = "e-m:e-p270:32:32-p271:32:32-p272:64:64-i64:64-i128:128-f80:128-n8:16:32:64-S128"
target triple = "x86_64-pc-linux-gnu"

%class.PosixSemaphore = type { %union.sem_t }
%union.sem_t = type { i64, [24 x i8] }
%class.LogTagSet = type { ptr, i64, [5 x i32], [4 x i8], %class.LogOutputList, %class.LogDecorators, ptr }
%class.LogOutputList = type <{ [6 x ptr], i32, [4 x i8] }>
%class.LogDecorators = type { i32 }
%struct.__sigset_t = type { [16 x i64] }
%class.Thread = type { %class.ThreadShadow.base, i64, [43 x i64], ptr, ptr, i32, ptr, i64, i64, %class.ThreadLocalAllocBuffer, i64, %class.ThreadHeapSampler, %class.ThreadStatisticalInfo, %class.JfrThreadLocal, ptr, ptr, ptr, ptr, ptr, ptr, i64, i32, i32, ptr, i32, i32, i32, i32, i8, ptr }
%class.ThreadShadow.base = type <{ ptr, ptr, ptr, i32 }>
%class.ThreadLocalAllocBuffer = type <{ ptr, ptr, ptr, ptr, ptr, i64, i64, i64, i64, i32, i32, i32, i32, i64, %class.AdaptiveWeightedAverage, [4 x i8] }>
%class.AdaptiveWeightedAverage = type { float, i32, i32, i8, float }
%class.ThreadHeapSampler = type { i64 }
%class.ThreadStatisticalInfo = type { i64, i64 }
%class.JfrThreadLocal = type <{ ptr, ptr, ptr, ptr, ptr, ptr, ptr, ptr, ptr, ptr, %class.RefCountHandle, i64, i64, i64, i64, i64, i64, i64, i64, i64, i64, i64, i32, i32, i32, i16, i8, i8, i8, i8, i8, [5 x i8] }>
%class.RefCountHandle = type { ptr }
%class.OSThread = type <{ i32, i32, i64, %struct.__sigset_t, %class.SuspendResume, [4 x i8], ptr, ptr, i32, [4 x i8], ptr, ptr, i32, [4 x i8] }>
%class.SuspendResume = type { i32 }
%"struct.Atomic::PlatformLoad" = type { i8 }
%class.stringStream = type <{ %class.outputStream, ptr, i64, i64, i8, [48 x i8], [7 x i8] }>
%class.outputStream = type { ptr, i32, i8, i32, i64, %class.TimeStamp, ptr, i64 }
%class.TimeStamp = type { i64 }
%"struct.Atomic::LoadImpl.25" = type { i8 }

@_ZL12sr_semaphore = internal global %class.PosixSemaphore zeroinitializer, align 8
@_ZN12PosixSignals9SR_signumE = hidden global i32 12, align 4
@g_assert_poison = external global ptr, align 8
@.str.31 = private unnamed_addr constant [39 x i8] c"src/hotspot/os/posix/signals_posix.cpp\00", align 1
@_ZN16LogTagSetMappingILN6LogTag4typeE105ELS1_0ELS1_0ELS1_0ELS1_0ELS1_0EE7_tagsetE = linkonce_odr hidden global %class.LogTagSet zeroinitializer, comdat, align 8
@.str.172 = private unnamed_addr constant [3 x i8] c"%s\00", align 1
@.str.186 = private unnamed_addr constant [47 x i8] c"Non-attached thread received stray SR signal (\00", align 1
@.str.187 = private unnamed_addr constant [3 x i8] c").\00", align 1

; Function Attrs: mustprogress nounwind uwtable
define linkonce_odr hidden noundef ptr @_ZNK6Atomic12PlatformLoadILm8EEclIP9ParkEventEET_PVKS5_(ptr noundef nonnull align 1 dereferenceable(1) %0, ptr noundef %1) #1 comdat align 2 {
  %3 = alloca ptr, align 8
  %4 = alloca ptr, align 8
  store ptr %0, ptr %3, align 8
  store ptr %1, ptr %4, align 8
  %5 = load ptr, ptr %4, align 8
  %6 = load volatile ptr, ptr %5, align 8
  ret ptr %6
}

; Function Attrs: mustprogress nounwind uwtable
define linkonce_odr hidden noundef ptr @_ZNK6Atomic8LoadImplIP9ParkEventNS_12PlatformLoadILm8EEEvEclEPVKS2_(ptr noundef nonnull align 1 dereferenceable(1) %0, ptr noundef %1) #1 comdat align 2 {
  %3 = alloca ptr, align 8
  %4 = alloca ptr, align 8
  %5 = alloca %"struct.Atomic::PlatformLoad", align 1
  store ptr %0, ptr %3, align 8
  store ptr %1, ptr %4, align 8
  %6 = load ptr, ptr %4, align 8
  %7 = call noundef ptr @_ZNK6Atomic12PlatformLoadILm8EEclIP9ParkEventEET_PVKS5_(ptr noundef nonnull align 1 dereferenceable(1) %5, ptr noundef %6)
  ret ptr %7
}

; Function Attrs: mustprogress nounwind uwtable
define linkonce_odr hidden noundef zeroext i1 @_ZNK13LogOutputList8is_levelEN8LogLevel4typeE(ptr noundef nonnull align 8 dereferenceable(52) %0, i32 noundef %1) #1 comdat align 2 {
  %3 = alloca ptr, align 8
  %4 = alloca i32, align 4
  store ptr %0, ptr %3, align 8
  store i32 %1, ptr %4, align 4
  %5 = load ptr, ptr %3, align 8
  %6 = getelementptr inbounds %class.LogOutputList, ptr %5, i32 0, i32 0
  %7 = load i32, ptr %4, align 4
  %8 = zext i32 %7 to i64
  %9 = getelementptr inbounds [6 x ptr], ptr %6, i64 0, i64 %8
  %10 = load volatile ptr, ptr %9, align 8
  %11 = icmp ne ptr %10, null
  ret i1 %11
}

; Function Attrs: mustprogress nounwind uwtable
define linkonce_odr hidden void @_ZN8OSThread11set_siginfoEPv(ptr noundef nonnull align 8 dereferenceable(196) %0, ptr noundef %1) #1 comdat align 2 {
  %3 = alloca ptr, align 8
  %4 = alloca ptr, align 8
  store ptr %0, ptr %3, align 8
  store ptr %1, ptr %4, align 8
  %5 = load ptr, ptr %3, align 8
  %6 = load ptr, ptr %4, align 8
  %7 = getelementptr inbounds %class.OSThread, ptr %5, i32 0, i32 6
  store ptr %6, ptr %7, align 8
  ret void
}

; Function Attrs: mustprogress nounwind uwtable
define linkonce_odr hidden void @_ZN8OSThread12set_ucontextEP10ucontext_t(ptr noundef nonnull align 8 dereferenceable(196) %0, ptr noundef %1) #1 comdat align 2 {
  %3 = alloca ptr, align 8
  %4 = alloca ptr, align 8
  store ptr %0, ptr %3, align 8
  store ptr %1, ptr %4, align 8
  %5 = load ptr, ptr %3, align 8
  %6 = load ptr, ptr %4, align 8
  %7 = getelementptr inbounds %class.OSThread, ptr %5, i32 0, i32 7
  store ptr %6, ptr %7, align 8
  ret void
}

; Function Attrs: mustprogress nounwind uwtable
define linkonce_odr hidden noundef ptr @_ZN6Atomic4loadIP9ParkEventEET_PVKS3_(ptr noundef %0) #1 comdat align 2 {
  %2 = alloca ptr, align 8
  %3 = alloca %"struct.Atomic::LoadImpl.25", align 1
  store ptr %0, ptr %2, align 8
  %4 = load ptr, ptr %2, align 8
  %5 = call noundef ptr @_ZNK6Atomic8LoadImplIP9ParkEventNS_12PlatformLoadILm8EEEvEclEPVKS2_(ptr noundef nonnull align 1 dereferenceable(1) %3, ptr noundef %4)
  ret ptr %5
}

; Function Attrs: mustprogress nounwind uwtable
define linkonce_odr hidden noundef zeroext i1 @_ZNK9LogTagSet8is_levelEN8LogLevel4typeE(ptr noundef nonnull align 8 dereferenceable(112) %0, i32 noundef %1) #1 comdat align 2 {
  %3 = alloca ptr, align 8
  %4 = alloca i32, align 4
  store ptr %0, ptr %3, align 8
  store i32 %1, ptr %4, align 4
  %5 = load ptr, ptr %3, align 8
  %6 = getelementptr inbounds %class.LogTagSet, ptr %5, i32 0, i32 4
  %7 = load i32, ptr %4, align 4
  %8 = call noundef zeroext i1 @_ZNK13LogOutputList8is_levelEN8LogLevel4typeE(ptr noundef nonnull align 8 dereferenceable(52) %6, i32 noundef %7)
  ret i1 %8
}

; Function Attrs: mustprogress nounwind uwtable
define linkonce_odr hidden noundef nonnull align 8 dereferenceable(112) ptr @_ZN16LogTagSetMappingILN6LogTag4typeE105ELS1_0ELS1_0ELS1_0ELS1_0ELS1_0EE6tagsetEv() #1 comdat align 2 {
  ret ptr @_ZN16LogTagSetMappingILN6LogTag4typeE105ELS1_0ELS1_0ELS1_0ELS1_0ELS1_0EE7_tagsetE
}

; Function Attrs: mustprogress nounwind uwtable
define internal void @_ZL24add_error_signals_to_setP10__sigset_t(ptr noundef %0) #1 {
  %2 = alloca ptr, align 8
  store ptr %0, ptr %2, align 8
  %3 = load ptr, ptr %2, align 8
  %4 = call i32 @sigaddset(ptr noundef %3, i32 noundef 4) #2
  %5 = load ptr, ptr %2, align 8
  %6 = call i32 @sigaddset(ptr noundef %5, i32 noundef 7) #2
  %7 = load ptr, ptr %2, align 8
  %8 = call i32 @sigaddset(ptr noundef %7, i32 noundef 8) #2
  %9 = load ptr, ptr %2, align 8
  %10 = call i32 @sigaddset(ptr noundef %9, i32 noundef 11) #2
  %11 = load ptr, ptr %2, align 8
  %12 = call i32 @sigaddset(ptr noundef %11, i32 noundef 5) #2
  ret void
}

; Function Attrs: mustprogress nounwind uwtable
define internal void @_ZL20resume_clear_contextP8OSThread(ptr noundef %0) #1 {
  %2 = alloca ptr, align 8
  store ptr %0, ptr %2, align 8
  %3 = load ptr, ptr %2, align 8
  call void @_ZN8OSThread12set_ucontextEP10ucontext_t(ptr noundef nonnull align 8 dereferenceable(196) %3, ptr noundef null)
  %4 = load ptr, ptr %2, align 8
  call void @_ZN8OSThread11set_siginfoEPv(ptr noundef nonnull align 8 dereferenceable(196) %4, ptr noundef null)
  ret void
}

; Function Attrs: mustprogress nounwind uwtable
define linkonce_odr hidden noundef i32 @_ZN13SuspendResume7runningEv(ptr noundef nonnull align 4 dereferenceable(4) %0) #1 comdat align 2 {
  %2 = alloca ptr, align 8
  store ptr %0, ptr %2, align 8
  %3 = load ptr, ptr %2, align 8
  %4 = call noundef i32 @_ZN13SuspendResume12switch_stateENS_5StateES0_(ptr noundef nonnull align 4 dereferenceable(4) %3, i32 noundef 3, i32 noundef 0)
  ret i32 %4
}

; Function Attrs: mustprogress nounwind uwtable
define linkonce_odr hidden noundef i32 @_ZN13SuspendResume9suspendedEv(ptr noundef nonnull align 4 dereferenceable(4) %0) #1 comdat align 2 {
  %2 = alloca ptr, align 8
  store ptr %0, ptr %2, align 8
  %3 = load ptr, ptr %2, align 8
  %4 = call noundef i32 @_ZN13SuspendResume12switch_stateENS_5StateES0_(ptr noundef nonnull align 4 dereferenceable(4) %3, i32 noundef 1, i32 noundef 2)
  ret i32 %4
}

; Function Attrs: mustprogress nounwind uwtable
define internal void @_ZL20suspend_save_contextP8OSThreadP9siginfo_tPv(ptr noundef %0, ptr noundef %1, ptr noundef %2) #1 {
  %4 = alloca ptr, align 8
  %5 = alloca ptr, align 8
  %6 = alloca ptr, align 8
  store ptr %0, ptr %4, align 8
  store ptr %1, ptr %5, align 8
  store ptr %2, ptr %6, align 8
  %7 = load ptr, ptr %4, align 8
  %8 = load ptr, ptr %6, align 8
  call void @_ZN8OSThread12set_ucontextEP10ucontext_t(ptr noundef nonnull align 8 dereferenceable(196) %7, ptr noundef %8)
  %9 = load ptr, ptr %4, align 8
  %10 = load ptr, ptr %5, align 8
  call void @_ZN8OSThread11set_siginfoEPv(ptr noundef nonnull align 8 dereferenceable(196) %9, ptr noundef %10)
  ret void
}

; Function Attrs: mustprogress nounwind uwtable
define linkonce_odr hidden noundef i32 @_ZNK13SuspendResume5stateEv(ptr noundef nonnull align 4 dereferenceable(4) %0) #1 comdat align 2 {
  %2 = alloca ptr, align 8
  store ptr %0, ptr %2, align 8
  %3 = load ptr, ptr %2, align 8
  %4 = getelementptr inbounds %class.SuspendResume, ptr %3, i32 0, i32 0
  %5 = load volatile i32, ptr %4, align 4
  ret i32 %5
}

; Function Attrs: mustprogress nounwind uwtable
define linkonce_odr hidden noundef ptr @_ZNK6Thread8osthreadEv(ptr noundef nonnull align 8 dereferenceable(888) %0) #1 comdat align 2 {
  %2 = alloca ptr, align 8
  store ptr %0, ptr %2, align 8
  %3 = load ptr, ptr %2, align 8
  %4 = getelementptr inbounds %class.Thread, ptr %3, i32 0, i32 15
  %5 = load ptr, ptr %4, align 8
  ret ptr %5
}

; Function Attrs: mustprogress nounwind uwtable
define linkonce_odr hidden noundef zeroext i1 @_ZN6Thread14has_terminatedEv(ptr noundef nonnull align 8 dereferenceable(888) %0) #1 comdat align 2 {
  %2 = alloca ptr, align 8
  store ptr %0, ptr %2, align 8
  %3 = load ptr, ptr %2, align 8
  %4 = getelementptr inbounds %class.Thread, ptr %3, i32 0, i32 23
  %5 = call noundef ptr @_ZN6Atomic4loadIP9ParkEventEET_PVKS3_(ptr noundef %4)
  %6 = icmp eq ptr %5, null
  ret i1 %6
}

; Function Attrs: mustprogress nounwind uwtable
define linkonce_odr hidden noundef ptr @_ZNK12stringStream4baseEv(ptr noundef nonnull align 8 dereferenceable(129) %0) #1 comdat align 2 {
  %2 = alloca ptr, align 8
  store ptr %0, ptr %2, align 8
  %3 = load ptr, ptr %2, align 8
  %4 = getelementptr inbounds %class.stringStream, ptr %3, i32 0, i32 1
  %5 = load ptr, ptr %4, align 8
  ret ptr %5
}

; Function Attrs: mustprogress nounwind uwtable
define linkonce_odr hidden noundef zeroext i1 @_ZN7LogImplILN6LogTag4typeE105ELS1_0ELS1_0ELS1_0ELS1_0ELS1_0EE8is_levelEN8LogLevel4typeE(i32 noundef %0) #1 comdat align 2 {
  %2 = alloca i32, align 4
  store i32 %0, ptr %2, align 4
  %3 = call noundef nonnull align 8 dereferenceable(112) ptr @_ZN16LogTagSetMappingILN6LogTag4typeE105ELS1_0ELS1_0ELS1_0ELS1_0ELS1_0EE6tagsetEv()
  %4 = load i32, ptr %2, align 4
  %5 = call noundef zeroext i1 @_ZNK9LogTagSet8is_levelEN8LogLevel4typeE(ptr noundef nonnull align 8 dereferenceable(112) %3, i32 noundef %4)
  ret i1 %5
}

; Function Attrs: mustprogress nounwind uwtable
define linkonce_odr hidden void @_ZN12outputStream9print_rawEPKc(ptr noundef nonnull align 8 dereferenceable(56) %0, ptr noundef %1) #1 comdat align 2 {
  %3 = alloca ptr, align 8
  %4 = alloca ptr, align 8
  store ptr %0, ptr %3, align 8
  store ptr %1, ptr %4, align 8
  %5 = load ptr, ptr %3, align 8
  %6 = load ptr, ptr %4, align 8
  %7 = load ptr, ptr %4, align 8
  %8 = call i64 @strlen(ptr noundef %7) #14
  call void @_ZN12outputStream9print_rawEPKcm(ptr noundef nonnull align 8 dereferenceable(56) %5, ptr noundef %6, i64 noundef %8)
  ret void
}

; Function Attrs: mustprogress nounwind uwtable
define linkonce_odr hidden noundef ptr @_ZN6Thread20current_or_null_safeEv() #1 comdat align 2 {
  %1 = alloca ptr, align 8
  %2 = call noundef zeroext i1 @_ZN18ThreadLocalStorage14is_initializedEv()
  br i1 %2, label %3, label %5

3:                                                ; preds = %0
  %4 = call noundef ptr @_ZN18ThreadLocalStorage6threadEv()
  store ptr %4, ptr %1, align 8
  br label %6

5:                                                ; preds = %0
  store ptr null, ptr %1, align 8
  br label %6

6:                                                ; preds = %5, %3
  %7 = load ptr, ptr %1, align 8
  ret ptr %7
}

; Function Attrs: mustprogress nounwind uwtable
define hidden void @_ZN12PosixSignals21unblock_error_signalsEv() #1 align 2 {
  %1 = alloca %struct.__sigset_t, align 8
  %2 = call i32 @sigemptyset(ptr noundef %1) #2
  call void @_ZL24add_error_signals_to_setP10__sigset_t(ptr noundef %1)
  %3 = call i32 @pthread_sigmask(i32 noundef 1, ptr noundef %1, ptr noundef null) #2
  ret void
}

; Function Attrs: mustprogress nounwind uwtable
define internal void @_ZL10SR_handleriP9siginfo_tPv(i32 noundef %0, ptr noundef %1, ptr noundef %2) #1 {
  %4 = alloca i32, align 4
  %5 = alloca ptr, align 8
  %6 = alloca ptr, align 8
  %7 = alloca i32, align 4
  %8 = alloca ptr, align 8
  %9 = alloca %class.stringStream, align 8
  %10 = alloca ptr, align 8
  %11 = alloca i32, align 4
  %12 = alloca i32, align 4
  %13 = alloca %struct.__sigset_t, align 8
  %14 = alloca i32, align 4
  store i32 %0, ptr %4, align 4
  store ptr %1, ptr %5, align 8
  store ptr %2, ptr %6, align 8
  %15 = call ptr @__errno_location() #13
  %16 = load i32, ptr %15, align 4
  store i32 %16, ptr %7, align 4
  call void @_ZN12PosixSignals21unblock_error_signalsEv()
  %17 = call noundef ptr @_ZN6Thread20current_or_null_safeEv()
  store ptr %17, ptr %8, align 8
  %18 = load ptr, ptr %8, align 8
  %19 = icmp eq ptr %18, null
  br i1 %19, label %20, label %27

20:                                               ; preds = %3
  call void @_ZN12stringStreamC1Em(ptr noundef nonnull align 8 dereferenceable(129) %9, i64 noundef 0)
  call void @_ZN12outputStream9print_rawEPKc(ptr noundef nonnull align 8 dereferenceable(56) %9, ptr noundef @.str.186)
  %21 = load ptr, ptr %5, align 8
  call void @_ZN2os13print_siginfoEP12outputStreamPKv(ptr noundef %9, ptr noundef %21)
  call void @_ZN12outputStream9print_rawEPKc(ptr noundef nonnull align 8 dereferenceable(56) %9, ptr noundef @.str.187)
  %22 = call noundef zeroext i1 @_ZN7LogImplILN6LogTag4typeE105ELS1_0ELS1_0ELS1_0ELS1_0ELS1_0EE8is_levelEN8LogLevel4typeE(i32 noundef 4)
  br i1 %22, label %24, label %23

23:                                               ; preds = %20
  br label %26

24:                                               ; preds = %20
  %25 = call noundef ptr @_ZNK12stringStream4baseEv(ptr noundef nonnull align 8 dereferenceable(129) %9)
  call void (ptr, ...) @_ZN7LogImplILN6LogTag4typeE105ELS1_0ELS1_0ELS1_0ELS1_0ELS1_0EE5writeILN8LogLevel4typeE4EEEvPKcz(ptr noundef @.str.172, ptr noundef %25)
  br label %26

26:                                               ; preds = %24, %23
  call void @_ZN12stringStreamD1Ev(ptr noundef nonnull align 8 dereferenceable(129) %9) #2
  br label %96

27:                                               ; preds = %3
  %28 = load ptr, ptr %8, align 8
  %29 = call noundef zeroext i1 @_ZN6Thread14has_terminatedEv(ptr noundef nonnull align 8 dereferenceable(888) %28)
  br i1 %29, label %30, label %31

30:                                               ; preds = %27
  br label %96

31:                                               ; preds = %27
  %32 = load ptr, ptr %8, align 8
  %33 = call noundef ptr @_ZNK6Thread8osthreadEv(ptr noundef nonnull align 8 dereferenceable(888) %32)
  store ptr %33, ptr %10, align 8
  %34 = load ptr, ptr %10, align 8
  %35 = getelementptr inbounds %class.OSThread, ptr %34, i32 0, i32 4
  %36 = call noundef i32 @_ZNK13SuspendResume5stateEv(ptr noundef nonnull align 4 dereferenceable(4) %35)
  store i32 %36, ptr %11, align 4
  %37 = load i32, ptr %11, align 4
  %38 = icmp eq i32 %37, 1
  br i1 %38, label %39, label %82

39:                                               ; preds = %31
  %40 = load ptr, ptr %10, align 8
  %41 = load ptr, ptr %5, align 8
  %42 = load ptr, ptr %6, align 8
  call void @_ZL20suspend_save_contextP8OSThreadP9siginfo_tPv(ptr noundef %40, ptr noundef %41, ptr noundef %42)
  %43 = load ptr, ptr %10, align 8
  %44 = getelementptr inbounds %class.OSThread, ptr %43, i32 0, i32 4
  %45 = call noundef i32 @_ZN13SuspendResume9suspendedEv(ptr noundef nonnull align 4 dereferenceable(4) %44)
  store i32 %45, ptr %12, align 4
  %46 = load i32, ptr %12, align 4
  %47 = icmp eq i32 %46, 2
  br i1 %47, label %48, label %71

48:                                               ; preds = %39
  %49 = call i32 @sigemptyset(ptr noundef %13) #2
  %50 = call i32 @pthread_sigmask(i32 noundef 0, ptr noundef null, ptr noundef %13) #2
  %51 = load i32, ptr @_ZN12PosixSignals9SR_signumE, align 4
  %52 = call i32 @sigdelset(ptr noundef %13, i32 noundef %51) #2
  call void @_ZN14PosixSemaphore6signalEj(ptr noundef nonnull align 8 dereferenceable(32) @_ZL12sr_semaphore, i32 noundef 1)
  br label %53

53:                                               ; preds = %69, %48
  %54 = call i32 @sigsuspend(ptr noundef %13)
  %55 = load ptr, ptr %10, align 8
  %56 = getelementptr inbounds %class.OSThread, ptr %55, i32 0, i32 4
  %57 = call noundef i32 @_ZN13SuspendResume7runningEv(ptr noundef nonnull align 4 dereferenceable(4) %56)
  store i32 %57, ptr %14, align 4
  %58 = load i32, ptr %14, align 4
  %59 = icmp eq i32 %58, 0
  br i1 %59, label %60, label %61

60:                                               ; preds = %53
  call void @_ZN14PosixSemaphore6signalEj(ptr noundef nonnull align 8 dereferenceable(32) @_ZL12sr_semaphore, i32 noundef 1)
  br label %70

61:                                               ; preds = %53
  %62 = load i32, ptr %14, align 4
  %63 = icmp ne i32 %62, 2
  br i1 %63, label %64, label %68

64:                                               ; preds = %61
  br label %65

65:                                               ; preds = %64
  %66 = load ptr, ptr @g_assert_poison, align 8
  store i8 88, ptr %66, align 1
  call void @_Z28report_should_not_reach_herePKci(ptr noundef @.str.31, i32 noundef 1696) #12
  unreachable

67:                                               ; No predecessors!
  br label %68

68:                                               ; preds = %67, %61
  br label %69

69:                                               ; preds = %68
  br label %53, !llvm.loop !20

70:                                               ; preds = %60
  br label %80

71:                                               ; preds = %39
  %72 = load i32, ptr %12, align 4
  %73 = icmp eq i32 %72, 0
  br i1 %73, label %74, label %75

74:                                               ; preds = %71
  br label %79

75:                                               ; preds = %71
  br label %76

76:                                               ; preds = %75
  %77 = load ptr, ptr @g_assert_poison, align 8
  store i8 88, ptr %77, align 1
  call void @_Z28report_should_not_reach_herePKci(ptr noundef @.str.31, i32 noundef 1703) #12
  unreachable

78:                                               ; No predecessors!
  br label %79

79:                                               ; preds = %78, %74
  br label %80

80:                                               ; preds = %79, %70
  %81 = load ptr, ptr %10, align 8
  call void @_ZL20resume_clear_contextP8OSThread(ptr noundef %81)
  br label %93

82:                                               ; preds = %31
  %83 = load i32, ptr %11, align 4
  %84 = icmp eq i32 %83, 0
  br i1 %84, label %85, label %86

85:                                               ; preds = %82
  br label %92

86:                                               ; preds = %82
  %87 = load i32, ptr %11, align 4
  %88 = icmp eq i32 %87, 3
  br i1 %88, label %89, label %90

89:                                               ; preds = %86
  br label %91

90:                                               ; preds = %86
  br label %91

91:                                               ; preds = %90, %89
  br label %92

92:                                               ; preds = %91, %85
  br label %93

93:                                               ; preds = %92, %80
  %94 = load i32, ptr %7, align 4
  %95 = call ptr @__errno_location() #13
  store i32 %94, ptr %95, align 4
  br label %96

96:                                               ; preds = %93, %30, %26
  ret void
}