; Function Attrs: mustprogress nounwind uwtable
define internal void @_ZL10SR_handleriP9siginfo_tPv(i32 %0, ptr noundef %1, ptr noundef %2) #0 {
  %4 = alloca %struct.__sigset_t, align 8
  %5 = alloca %class.stringStream, align 8
  %6 = alloca %struct.__sigset_t, align 8
  %7 = tail call ptr @__errno_location() #21
  %8 = load i32, ptr %7, align 4
  call void @llvm.lifetime.start.p0(i64 128, ptr nonnull %4)
  %9 = call i32 @sigemptyset(ptr noundef nonnull %4) #20
  %10 = call i32 @sigaddset(ptr noundef nonnull %4, i32 noundef 4) #20
  %11 = call i32 @sigaddset(ptr noundef nonnull %4, i32 noundef 7) #20
  %12 = call i32 @sigaddset(ptr noundef nonnull %4, i32 noundef 8) #20
  %13 = call i32 @sigaddset(ptr noundef nonnull %4, i32 noundef 11) #20
  %14 = call i32 @sigaddset(ptr noundef nonnull %4, i32 noundef 5) #20
  %15 = call i32 @pthread_sigmask(i32 noundef 1, ptr noundef nonnull %4, ptr noundef null) #20
  call void @llvm.lifetime.end.p0(i64 128, ptr nonnull %4)
  %16 = call noundef zeroext i1 @_ZN18ThreadLocalStorage14is_initializedEv() #20
  br i1 %16, label %_ZN6Thread20current_or_null_safeEv.exit, label %_ZN6Thread20current_or_null_safeEv.exit.thread

_ZN6Thread20current_or_null_safeEv.exit:          ; preds = %3
  %17 = call noundef ptr @_ZN18ThreadLocalStorage6threadEv() #20
  %18 = icmp eq ptr %17, null
  br i1 %18, label %_ZN6Thread20current_or_null_safeEv.exit.thread, label %24

_ZN6Thread20current_or_null_safeEv.exit.thread:   ; preds = %3, %_ZN6Thread20current_or_null_safeEv.exit
  call void @_ZN12stringStreamC1Em(ptr noundef nonnull align 8 dereferenceable(129) %5, i64 noundef 0) #20
  call void @_ZN12outputStream9print_rawEPKcm(ptr noundef nonnull align 8 dereferenceable(56) %5, ptr noundef nonnull @.str.186, i64 noundef 46) #20
  call void @_ZN2os13print_siginfoEP12outputStreamPKv(ptr noundef nonnull %5, ptr noundef %1)
  call void @_ZN12outputStream9print_rawEPKcm(ptr noundef nonnull align 8 dereferenceable(56) %5, ptr noundef nonnull @.str.187, i64 noundef 2) #20
  %19 = load volatile ptr, ptr getelementptr inbounds (i8, ptr @_ZN16LogTagSetMappingILN6LogTag4typeE105ELS1_0ELS1_0ELS1_0ELS1_0ELS1_0EE7_tagsetE, i64 72), align 8
  %.not = icmp eq ptr %19, null
  br i1 %.not, label %23, label %20

20:                                               ; preds = %_ZN6Thread20current_or_null_safeEv.exit.thread
  %21 = getelementptr inbounds i8, ptr %5, i64 56
  %22 = load ptr, ptr %21, align 8
  call void (ptr, ...) @_ZN7LogImplILN6LogTag4typeE105ELS1_0ELS1_0ELS1_0ELS1_0ELS1_0EE5writeILN8LogLevel4typeE4EEEvPKcz(ptr noundef nonnull @.str.172, ptr noundef %22)
  br label %23

23:                                               ; preds = %_ZN6Thread20current_or_null_safeEv.exit.thread, %20
  call void @_ZN12stringStreamD1Ev(ptr noundef nonnull align 8 dereferenceable(129) %5) #20
  br label %53

24:                                               ; preds = %_ZN6Thread20current_or_null_safeEv.exit
  %25 = getelementptr inbounds i8, ptr %17, i64 848
  %26 = load volatile ptr, ptr %25, align 8
  %27 = icmp eq ptr %26, null
  br i1 %27, label %53, label %28

28:                                               ; preds = %24
  %29 = getelementptr inbounds i8, ptr %17, i64 792
  %30 = load ptr, ptr %29, align 8
  %31 = getelementptr inbounds i8, ptr %30, i64 144
  %32 = load volatile i32, ptr %31, align 4
  %33 = icmp eq i32 %32, 1
  br i1 %33, label %34, label %52

34:                                               ; preds = %28
  %35 = getelementptr inbounds i8, ptr %30, i64 160
  store ptr %2, ptr %35, align 8
  %36 = getelementptr inbounds i8, ptr %30, i64 152
  store ptr %1, ptr %36, align 8
  %37 = call noundef i32 @_ZN13SuspendResume12switch_stateENS_5StateES0_(ptr noundef nonnull align 4 dereferenceable(4) %31, i32 noundef 1, i32 noundef 2) #20
  switch i32 %37, label %49 [
    i32 2, label %38
    i32 0, label %51
  ]

38:                                               ; preds = %34
  %39 = call i32 @sigemptyset(ptr noundef nonnull %6) #20
  %40 = call i32 @pthread_sigmask(i32 noundef 0, ptr noundef null, ptr noundef nonnull %6) #20
  %41 = load i32, ptr @_ZN12PosixSignals9SR_signumE, align 4
  %42 = call i32 @sigdelset(ptr noundef nonnull %6, i32 noundef %41) #20
  call void @_ZN14PosixSemaphore6signalEj(ptr noundef nonnull align 8 dereferenceable(32) @_ZL12sr_semaphore, i32 noundef 1) #20
  br label %43

43:                                               ; preds = %43, %38
  %44 = call i32 @sigsuspend(ptr noundef nonnull %6) #20
  %45 = call noundef i32 @_ZN13SuspendResume12switch_stateENS_5StateES0_(ptr noundef nonnull align 4 dereferenceable(4) %31, i32 noundef 3, i32 noundef 0) #20
  switch i32 %45, label %47 [
    i32 0, label %46
    i32 2, label %43
  ]

46:                                               ; preds = %43
  call void @_ZN14PosixSemaphore6signalEj(ptr noundef nonnull align 8 dereferenceable(32) @_ZL12sr_semaphore, i32 noundef 1) #20
  br label %51

47:                                               ; preds = %43
  %48 = load ptr, ptr @g_assert_poison, align 8
  store i8 88, ptr %48, align 1
  call void @_Z28report_should_not_reach_herePKci(ptr noundef nonnull @.str.31, i32 noundef 1696) #22
  unreachable

49:                                               ; preds = %34
  %50 = load ptr, ptr @g_assert_poison, align 8
  store i8 88, ptr %50, align 1
  call void @_Z28report_should_not_reach_herePKci(ptr noundef nonnull @.str.31, i32 noundef 1703) #22
  unreachable

51:                                               ; preds = %34, %46
  call void @llvm.memset.p0.i64(ptr noundef nonnull align 8 dereferenceable(16) %36, i8 0, i64 16, i1 false)
  br label %52

52:                                               ; preds = %28, %51
  store i32 %8, ptr %7, align 4
  br label %53

53:                                               ; preds = %24, %52, %23
  ret void
}